Certificate:
    Data:
        Version: 3 (0x2)
        Serial Number:
            ae:41:39:f4:46:ca:55:94:0a:ab:0d:6e:8a:d4:f9:32
        Signature Algorithm: sha256WithRSAEncryption
        Issuer: CN=mydomain.io
        Validity
            Not Before: Feb 23 07:36:51 2023 GMT
            Not After : May 28 07:36:51 2025 GMT
        Subject: CN=SAE1
        Subject Public Key Info:
            Public Key Algorithm: rsaEncryption
                Public-Key: (2048 bit)
                Modulus:
                    00:c9:f1:a8:f4:f3:92:b3:9a:62:b1:1d:38:b9:7c:
                    d6:c7:86:d8:e2:4a:af:0e:ff:56:90:a8:a7:71:e8:
                    e9:c5:46:d9:4a:e7:48:60:9f:1e:09:98:a7:1f:d0:
                    8a:14:71:ff:9d:a4:f2:8d:cb:eb:86:a7:13:8a:20:
                    ef:bb:f7:f4:73:10:2f:bc:24:91:03:c7:0c:48:ba:
                    e4:90:e2:30:05:0c:fb:4b:ce:90:f4:c8:08:7d:07:
                    48:51:73:87:57:f3:da:3d:25:0e:7e:35:e6:8d:50:
                    5a:a7:1f:aa:da:79:8b:f7:74:27:7a:b1:a9:b1:87:
                    5e:18:00:fb:67:f2:b4:58:19:9e:b4:1c:a1:f2:84:
                    e4:c4:f0:96:c2:03:d5:71:6a:28:0d:83:7c:64:62:
                    a1:ef:4b:02:a4:07:d2:47:25:55:d9:34:40:05:90:
                    f2:db:45:db:bb:5d:f8:77:43:60:ce:58:f7:8f:63:
                    0b:44:5b:20:7f:99:0c:77:9c:24:91:29:62:65:48:
                    51:ed:7d:62:e6:20:eb:fe:45:50:20:21:47:12:38:
                    66:cb:36:22:dd:ef:82:16:35:3a:5e:a2:ae:33:ba:
                    cb:02:f4:16:02:b6:54:92:66:2e:d6:12:f0:36:d3:
                    08:13:f3:23:3f:5a:f2:07:f4:64:57:47:58:49:ae:
                    2f:ef
                Exponent: 65537 (0x10001)
        X509v3 extensions:
            X509v3 Basic Constraints: 
                CA:FALSE
            X509v3 Subject Key Identifier: 
                30:76:7F:3F:B1:80:A8:C1:52:00:A3:9C:D8:33:DA:3A:D9:D9:CD:27
            X509v3 Authority Key Identifier: 
                keyid:04:96:16:58:34:10:B6:79:9D:EA:E4:BC:EC:B5:4A:9E:22:27:D5:F0
                DirName:/CN=mydomain.io
                serial:66:94:68:83:81:8E:7B:57:59:BB:67:90:74:D1:88:F4:6F:E3:16:A9
            X509v3 Extended Key Usage: 
                TLS Web Client Authentication
            X509v3 Key Usage: 
                Digital Signature
            X509v3 Subject Alternative Name: 
                URI:https://mydomain.io/SAE1
    Signature Algorithm: sha256WithRSAEncryption
    Signature Value:
        7b:48:60:97:fc:3c:bb:16:15:e8:2f:3d:5a:c1:a8:c6:72:47:
        d5:82:04:4e:e1:f1:f9:cb:60:a7:d7:c0:4d:c1:64:52:fc:6b:
        b0:d2:aa:3f:a8:a7:2e:39:53:6b:4a:15:c2:99:b6:73:7b:1c:
        b4:63:03:5f:6e:51:2a:39:6d:46:14:df:fb:2f:7e:2f:c4:eb:
        80:76:a3:da:ab:43:91:17:cb:99:b4:99:d8:ce:86:c4:d7:b1:
        60:98:1d:27:6d:46:cc:b7:e2:40:24:ce:1d:23:74:6c:c9:7f:
        32:ea:88:34:f6:42:a9:6e:8d:68:b0:e7:1b:e3:b9:28:c6:07:
        ee:9a:5c:53:7c:ef:44:da:84:a5:6e:3f:00:d2:28:9f:e3:be:
        5f:86:af:e7:e4:b8:83:aa:5d:74:2c:79:46:16:0c:fb:ef:82:
        c9:5d:62:1f:50:8b:2e:74:f9:4b:f8:c4:46:0c:c8:31:da:63:
        09:6f:e6:37:f9:ac:4d:c6:31:dc:c6:39:73:29:06:2b:d0:26:
        cc:e6:9c:47:23:f5:39:4b:23:d7:39:88:0e:6b:37:89:0e:55:
        d8:9a:fb:2c:e4:40:a9:67:c9:09:97:ca:7a:8a:7c:8e:4f:0c:
        24:6b:0a:e9:af:5a:88:dd:8f:25:a9:3e:0e:ce:15:d4:fe:5d:
        54:f4:21:3e
-----BEGIN CERTIFICATE-----
MIIDeDCCAmCgAwIBAgIRAK5BOfRGylWUCqsNborU+TIwDQYJKoZIhvcNAQELBQAw
FjEUMBIGA1UEAwwLbXlkb21haW4uaW8wHhcNMjMwMjIzMDczNjUxWhcNMjUwNTI4
MDczNjUxWjAPMQ0wCwYDVQQDDARTQUUxMIIBIjANBgkqhkiG9w0BAQEFAAOCAQ8A
MIIBCgKCAQEAyfGo9POSs5pisR04uXzWx4bY4kqvDv9WkKincejpxUbZSudIYJ8e
CZinH9CKFHH/naTyjcvrhqcTiiDvu/f0cxAvvCSRA8cMSLrkkOIwBQz7S86Q9MgI
fQdIUXOHV/PaPSUOfjXmjVBapx+q2nmL93QnerGpsYdeGAD7Z/K0WBmetByh8oTk
xPCWwgPVcWooDYN8ZGKh70sCpAfSRyVV2TRABZDy20Xbu134d0Ngzlj3j2MLRFsg
f5kMd5wkkSliZUhR7X1i5iDr/kVQICFHEjhmyzYi3e+CFjU6XqKuM7rLAvQWArZU
kmYu1hLwNtMIE/MjP1ryB/RkV0dYSa4v7wIDAQABo4HHMIHEMAkGA1UdEwQCMAAw
HQYDVR0OBBYEFDB2fz+xgKjBUgCjnNgz2jrZ2c0nMFEGA1UdIwRKMEiAFASWFlg0
ELZ5nerkvOy1Sp4iJ9XwoRqkGDAWMRQwEgYDVQQDDAtteWRvbWFpbi5pb4IUZpRo
g4GOe1dZu2eQdNGI9G/jFqkwEwYDVR0lBAwwCgYIKwYBBQUHAwIwCwYDVR0PBAQD
AgeAMCMGA1UdEQQcMBqGGGh0dHBzOi8vbXlkb21haW4uaW8vU0FFMTANBgkqhkiG
9w0BAQsFAAOCAQEAe0hgl/w8uxYV6C89WsGoxnJH1YIETuHx+ctgp9fATcFkUvxr
sNKqP6inLjlTa0oVwpm2c3sctGMDX25RKjltRhTf+y9+L8TrgHaj2qtDkRfLmbSZ
2M6GxNexYJgdJ21GzLfiQCTOHSN0bMl/MuqINPZCqW6NaLDnG+O5KMYH7ppcU3zv
RNqEpW4/ANIon+O+X4av5+S4g6pddCx5RhYM+++CyV1iH1CLLnT5S/jERgzIMdpj
CW/mN/msTcYx3MY5cykGK9AmzOacRyP1OUsj1zmIDms3iQ5V2Jr7LORAqWfJCZfK
eop8jk8MJGsK6a9aiN2PJak+Ds4V1P5dVPQhPg==
-----END CERTIFICATE-----
